#include <math.h>
#include <stdio.h>
#include <stdlib.h>
#include <string.h>

int main()
{
int n,i,j,m=0,x,y;
scanf("%d",&n);
char a[100][1000];
for(i=0;i<n+1;i++)
 gets(a[i]);
for(i=0;i<n+1;i++)
  {for(j=0;a[i][j]!='\0';j++)
     printf("%c",a[i][j]);
     printf("\n");
     x=j;
   for(j=0;j<x;j++)
    {if(a[i][j]==')')
      {if(j==0)a[i][j]='?';
       for(m=1;j-m>=0;m++)
         if(a[i][j-m]=='('){a[i][j-m]=' ';a[i][j]=' ';break;}
         else a[i][j]='?';}
     if(a[i][j]!='('&&a[i][j]!=')'&&a[i][j]!='?')a[i][j]=' ';}
   for(j=x-1;j>=0;j--)
      if(a[i][j]=='(')
         {if(j==x-1)a[i][j]='$';
          else for(m=1;j+m<x;m++)
            if(a[i][j+m]==')'){a[i][j]=' ';a[i][j+m]=' ';break;}
             else a[i][j]='$';}
     for(j=0;j<x;j++)
       printf("%c",a[i][j]);
     printf("\n");
  }
  return 0;
}