; ModuleID = '17/1461.c'
source_filename = "17/1461.c"
target datalayout = "e-m:e-p270:32:32-p271:32:32-p272:64:64-i64:64-f80:128-n8:16:32:64-S128"
target triple = "x86_64-pc-linux-gnu"

@.str = private unnamed_addr constant [3 x i8] c"%d\00", align 1
@.str.1 = private unnamed_addr constant [3 x i8] c"%c\00", align 1
@.str.2 = private unnamed_addr constant [2 x i8] c"\0A\00", align 1

; Function Attrs: noinline nounwind uwtable
define dso_local i32 @main() #0 {
  %1 = alloca i32, align 4
  %2 = alloca i32, align 4
  %3 = alloca i32, align 4
  %4 = alloca i32, align 4
  %5 = alloca i32, align 4
  %6 = alloca i32, align 4
  %7 = alloca i32, align 4
  %8 = alloca [100 x [1000 x i8]], align 16
  store i32 0, i32* %1, align 4
  store i32 0, i32* %5, align 4
  %9 = call i32 (i8*, ...) @__isoc99_scanf(i8* getelementptr inbounds ([3 x i8], [3 x i8]* @.str, i64 0, i64 0), i32* %2)
  store i32 0, i32* %3, align 4
  br label %10

10:                                               ; preds = %21, %0
  %11 = load i32, i32* %3, align 4
  %12 = load i32, i32* %2, align 4
  %13 = add nsw i32 %12, 1
  %14 = icmp slt i32 %11, %13
  br i1 %14, label %15, label %24

15:                                               ; preds = %10
  %16 = load i32, i32* %3, align 4
  %17 = sext i32 %16 to i64
  %18 = getelementptr inbounds [100 x [1000 x i8]], [100 x [1000 x i8]]* %8, i64 0, i64 %17
  %19 = getelementptr inbounds [1000 x i8], [1000 x i8]* %18, i64 0, i64 0
  %20 = call i32 (i8*, ...) bitcast (i32 (...)* @gets to i32 (i8*, ...)*)(i8* %19)
  br label %21

21:                                               ; preds = %15
  %22 = load i32, i32* %3, align 4
  %23 = add nsw i32 %22, 1
  store i32 %23, i32* %3, align 4
  br label %10

24:                                               ; preds = %10
  store i32 0, i32* %3, align 4
  br label %25

25:                                               ; preds = %266, %24
  %26 = load i32, i32* %3, align 4
  %27 = load i32, i32* %2, align 4
  %28 = add nsw i32 %27, 1
  %29 = icmp slt i32 %26, %28
  br i1 %29, label %30, label %269

30:                                               ; preds = %25
  store i32 0, i32* %4, align 4
  br label %31

31:                                               ; preds = %51, %30
  %32 = load i32, i32* %3, align 4
  %33 = sext i32 %32 to i64
  %34 = getelementptr inbounds [100 x [1000 x i8]], [100 x [1000 x i8]]* %8, i64 0, i64 %33
  %35 = load i32, i32* %4, align 4
  %36 = sext i32 %35 to i64
  %37 = getelementptr inbounds [1000 x i8], [1000 x i8]* %34, i64 0, i64 %36
  %38 = load i8, i8* %37, align 1
  %39 = sext i8 %38 to i32
  %40 = icmp ne i32 %39, 0
  br i1 %40, label %41, label %54

41:                                               ; preds = %31
  %42 = load i32, i32* %3, align 4
  %43 = sext i32 %42 to i64
  %44 = getelementptr inbounds [100 x [1000 x i8]], [100 x [1000 x i8]]* %8, i64 0, i64 %43
  %45 = load i32, i32* %4, align 4
  %46 = sext i32 %45 to i64
  %47 = getelementptr inbounds [1000 x i8], [1000 x i8]* %44, i64 0, i64 %46
  %48 = load i8, i8* %47, align 1
  %49 = sext i8 %48 to i32
  %50 = call i32 (i8*, ...) @printf(i8* getelementptr inbounds ([3 x i8], [3 x i8]* @.str.1, i64 0, i64 0), i32 %49)
  br label %51

51:                                               ; preds = %41
  %52 = load i32, i32* %4, align 4
  %53 = add nsw i32 %52, 1
  store i32 %53, i32* %4, align 4
  br label %31

54:                                               ; preds = %31
  %55 = call i32 (i8*, ...) @printf(i8* getelementptr inbounds ([2 x i8], [2 x i8]* @.str.2, i64 0, i64 0))
  %56 = load i32, i32* %4, align 4
  store i32 %56, i32* %6, align 4
  store i32 0, i32* %4, align 4
  br label %57

57:                                               ; preds = %164, %54
  %58 = load i32, i32* %4, align 4
  %59 = load i32, i32* %6, align 4
  %60 = icmp slt i32 %58, %59
  br i1 %60, label %61, label %167

61:                                               ; preds = %57
  %62 = load i32, i32* %3, align 4
  %63 = sext i32 %62 to i64
  %64 = getelementptr inbounds [100 x [1000 x i8]], [100 x [1000 x i8]]* %8, i64 0, i64 %63
  %65 = load i32, i32* %4, align 4
  %66 = sext i32 %65 to i64
  %67 = getelementptr inbounds [1000 x i8], [1000 x i8]* %64, i64 0, i64 %66
  %68 = load i8, i8* %67, align 1
  %69 = sext i8 %68 to i32
  %70 = icmp eq i32 %69, 41
  br i1 %70, label %71, label %126

71:                                               ; preds = %61
  %72 = load i32, i32* %4, align 4
  %73 = icmp eq i32 %72, 0
  br i1 %73, label %74, label %81

74:                                               ; preds = %71
  %75 = load i32, i32* %3, align 4
  %76 = sext i32 %75 to i64
  %77 = getelementptr inbounds [100 x [1000 x i8]], [100 x [1000 x i8]]* %8, i64 0, i64 %76
  %78 = load i32, i32* %4, align 4
  %79 = sext i32 %78 to i64
  %80 = getelementptr inbounds [1000 x i8], [1000 x i8]* %77, i64 0, i64 %79
  store i8 63, i8* %80, align 1
  br label %81

81:                                               ; preds = %74, %71
  store i32 1, i32* %5, align 4
  br label %82

82:                                               ; preds = %122, %81
  %83 = load i32, i32* %4, align 4
  %84 = load i32, i32* %5, align 4
  %85 = sub nsw i32 %83, %84
  %86 = icmp sge i32 %85, 0
  br i1 %86, label %87, label %125

87:                                               ; preds = %82
  %88 = load i32, i32* %3, align 4
  %89 = sext i32 %88 to i64
  %90 = getelementptr inbounds [100 x [1000 x i8]], [100 x [1000 x i8]]* %8, i64 0, i64 %89
  %91 = load i32, i32* %4, align 4
  %92 = load i32, i32* %5, align 4
  %93 = sub nsw i32 %91, %92
  %94 = sext i32 %93 to i64
  %95 = getelementptr inbounds [1000 x i8], [1000 x i8]* %90, i64 0, i64 %94
  %96 = load i8, i8* %95, align 1
  %97 = sext i8 %96 to i32
  %98 = icmp eq i32 %97, 40
  br i1 %98, label %99, label %114

99:                                               ; preds = %87
  %100 = load i32, i32* %3, align 4
  %101 = sext i32 %100 to i64
  %102 = getelementptr inbounds [100 x [1000 x i8]], [100 x [1000 x i8]]* %8, i64 0, i64 %101
  %103 = load i32, i32* %4, align 4
  %104 = load i32, i32* %5, align 4
  %105 = sub nsw i32 %103, %104
  %106 = sext i32 %105 to i64
  %107 = getelementptr inbounds [1000 x i8], [1000 x i8]* %102, i64 0, i64 %106
  store i8 32, i8* %107, align 1
  %108 = load i32, i32* %3, align 4
  %109 = sext i32 %108 to i64
  %110 = getelementptr inbounds [100 x [1000 x i8]], [100 x [1000 x i8]]* %8, i64 0, i64 %109
  %111 = load i32, i32* %4, align 4
  %112 = sext i32 %111 to i64
  %113 = getelementptr inbounds [1000 x i8], [1000 x i8]* %110, i64 0, i64 %112
  store i8 32, i8* %113, align 1
  br label %125

114:                                              ; preds = %87
  %115 = load i32, i32* %3, align 4
  %116 = sext i32 %115 to i64
  %117 = getelementptr inbounds [100 x [1000 x i8]], [100 x [1000 x i8]]* %8, i64 0, i64 %116
  %118 = load i32, i32* %4, align 4
  %119 = sext i32 %118 to i64
  %120 = getelementptr inbounds [1000 x i8], [1000 x i8]* %117, i64 0, i64 %119
  store i8 63, i8* %120, align 1
  br label %121

121:                                              ; preds = %114
  br label %122

122:                                              ; preds = %121
  %123 = load i32, i32* %5, align 4
  %124 = add nsw i32 %123, 1
  store i32 %124, i32* %5, align 4
  br label %82

125:                                              ; preds = %99, %82
  br label %126

126:                                              ; preds = %125, %61
  %127 = load i32, i32* %3, align 4
  %128 = sext i32 %127 to i64
  %129 = getelementptr inbounds [100 x [1000 x i8]], [100 x [1000 x i8]]* %8, i64 0, i64 %128
  %130 = load i32, i32* %4, align 4
  %131 = sext i32 %130 to i64
  %132 = getelementptr inbounds [1000 x i8], [1000 x i8]* %129, i64 0, i64 %131
  %133 = load i8, i8* %132, align 1
  %134 = sext i8 %133 to i32
  %135 = icmp ne i32 %134, 40
  br i1 %135, label %136, label %163

136:                                              ; preds = %126
  %137 = load i32, i32* %3, align 4
  %138 = sext i32 %137 to i64
  %139 = getelementptr inbounds [100 x [1000 x i8]], [100 x [1000 x i8]]* %8, i64 0, i64 %138
  %140 = load i32, i32* %4, align 4
  %141 = sext i32 %140 to i64
  %142 = getelementptr inbounds [1000 x i8], [1000 x i8]* %139, i64 0, i64 %141
  %143 = load i8, i8* %142, align 1
  %144 = sext i8 %143 to i32
  %145 = icmp ne i32 %144, 41
  br i1 %145, label %146, label %163

146:                                              ; preds = %136
  %147 = load i32, i32* %3, align 4
  %148 = sext i32 %147 to i64
  %149 = getelementptr inbounds [100 x [1000 x i8]], [100 x [1000 x i8]]* %8, i64 0, i64 %148
  %150 = load i32, i32* %4, align 4
  %151 = sext i32 %150 to i64
  %152 = getelementptr inbounds [1000 x i8], [1000 x i8]* %149, i64 0, i64 %151
  %153 = load i8, i8* %152, align 1
  %154 = sext i8 %153 to i32
  %155 = icmp ne i32 %154, 63
  br i1 %155, label %156, label %163

156:                                              ; preds = %146
  %157 = load i32, i32* %3, align 4
  %158 = sext i32 %157 to i64
  %159 = getelementptr inbounds [100 x [1000 x i8]], [100 x [1000 x i8]]* %8, i64 0, i64 %158
  %160 = load i32, i32* %4, align 4
  %161 = sext i32 %160 to i64
  %162 = getelementptr inbounds [1000 x i8], [1000 x i8]* %159, i64 0, i64 %161
  store i8 32, i8* %162, align 1
  br label %163

163:                                              ; preds = %156, %146, %136, %126
  br label %164

164:                                              ; preds = %163
  %165 = load i32, i32* %4, align 4
  %166 = add nsw i32 %165, 1
  store i32 %166, i32* %4, align 4
  br label %57

167:                                              ; preds = %57
  %168 = load i32, i32* %6, align 4
  %169 = sub nsw i32 %168, 1
  store i32 %169, i32* %4, align 4
  br label %170

170:                                              ; preds = %243, %167
  %171 = load i32, i32* %4, align 4
  %172 = icmp sge i32 %171, 0
  br i1 %172, label %173, label %246

173:                                              ; preds = %170
  %174 = load i32, i32* %3, align 4
  %175 = sext i32 %174 to i64
  %176 = getelementptr inbounds [100 x [1000 x i8]], [100 x [1000 x i8]]* %8, i64 0, i64 %175
  %177 = load i32, i32* %4, align 4
  %178 = sext i32 %177 to i64
  %179 = getelementptr inbounds [1000 x i8], [1000 x i8]* %176, i64 0, i64 %178
  %180 = load i8, i8* %179, align 1
  %181 = sext i8 %180 to i32
  %182 = icmp eq i32 %181, 40
  br i1 %182, label %183, label %242

183:                                              ; preds = %173
  %184 = load i32, i32* %4, align 4
  %185 = load i32, i32* %6, align 4
  %186 = sub nsw i32 %185, 1
  %187 = icmp eq i32 %184, %186
  br i1 %187, label %188, label %195

188:                                              ; preds = %183
  %189 = load i32, i32* %3, align 4
  %190 = sext i32 %189 to i64
  %191 = getelementptr inbounds [100 x [1000 x i8]], [100 x [1000 x i8]]* %8, i64 0, i64 %190
  %192 = load i32, i32* %4, align 4
  %193 = sext i32 %192 to i64
  %194 = getelementptr inbounds [1000 x i8], [1000 x i8]* %191, i64 0, i64 %193
  store i8 36, i8* %194, align 1
  br label %241

195:                                              ; preds = %183
  store i32 1, i32* %5, align 4
  br label %196

196:                                              ; preds = %237, %195
  %197 = load i32, i32* %4, align 4
  %198 = load i32, i32* %5, align 4
  %199 = add nsw i32 %197, %198
  %200 = load i32, i32* %6, align 4
  %201 = icmp slt i32 %199, %200
  br i1 %201, label %202, label %240

202:                                              ; preds = %196
  %203 = load i32, i32* %3, align 4
  %204 = sext i32 %203 to i64
  %205 = getelementptr inbounds [100 x [1000 x i8]], [100 x [1000 x i8]]* %8, i64 0, i64 %204
  %206 = load i32, i32* %4, align 4
  %207 = load i32, i32* %5, align 4
  %208 = add nsw i32 %206, %207
  %209 = sext i32 %208 to i64
  %210 = getelementptr inbounds [1000 x i8], [1000 x i8]* %205, i64 0, i64 %209
  %211 = load i8, i8* %210, align 1
  %212 = sext i8 %211 to i32
  %213 = icmp eq i32 %212, 41
  br i1 %213, label %214, label %229

214:                                              ; preds = %202
  %215 = load i32, i32* %3, align 4
  %216 = sext i32 %215 to i64
  %217 = getelementptr inbounds [100 x [1000 x i8]], [100 x [1000 x i8]]* %8, i64 0, i64 %216
  %218 = load i32, i32* %4, align 4
  %219 = sext i32 %218 to i64
  %220 = getelementptr inbounds [1000 x i8], [1000 x i8]* %217, i64 0, i64 %219
  store i8 32, i8* %220, align 1
  %221 = load i32, i32* %3, align 4
  %222 = sext i32 %221 to i64
  %223 = getelementptr inbounds [100 x [1000 x i8]], [100 x [1000 x i8]]* %8, i64 0, i64 %222
  %224 = load i32, i32* %4, align 4
  %225 = load i32, i32* %5, align 4
  %226 = add nsw i32 %224, %225
  %227 = sext i32 %226 to i64
  %228 = getelementptr inbounds [1000 x i8], [1000 x i8]* %223, i64 0, i64 %227
  store i8 32, i8* %228, align 1
  br label %240

229:                                              ; preds = %202
  %230 = load i32, i32* %3, align 4
  %231 = sext i32 %230 to i64
  %232 = getelementptr inbounds [100 x [1000 x i8]], [100 x [1000 x i8]]* %8, i64 0, i64 %231
  %233 = load i32, i32* %4, align 4
  %234 = sext i32 %233 to i64
  %235 = getelementptr inbounds [1000 x i8], [1000 x i8]* %232, i64 0, i64 %234
  store i8 36, i8* %235, align 1
  br label %236

236:                                              ; preds = %229
  br label %237

237:                                              ; preds = %236
  %238 = load i32, i32* %5, align 4
  %239 = add nsw i32 %238, 1
  store i32 %239, i32* %5, align 4
  br label %196

240:                                              ; preds = %214, %196
  br label %241

241:                                              ; preds = %240, %188
  br label %242

242:                                              ; preds = %241, %173
  br label %243

243:                                              ; preds = %242
  %244 = load i32, i32* %4, align 4
  %245 = add nsw i32 %244, -1
  store i32 %245, i32* %4, align 4
  br label %170

246:                                              ; preds = %170
  store i32 0, i32* %4, align 4
  br label %247

247:                                              ; preds = %261, %246
  %248 = load i32, i32* %4, align 4
  %249 = load i32, i32* %6, align 4
  %250 = icmp slt i32 %248, %249
  br i1 %250, label %251, label %264

251:                                              ; preds = %247
  %252 = load i32, i32* %3, align 4
  %253 = sext i32 %252 to i64
  %254 = getelementptr inbounds [100 x [1000 x i8]], [100 x [1000 x i8]]* %8, i64 0, i64 %253
  %255 = load i32, i32* %4, align 4
  %256 = sext i32 %255 to i64
  %257 = getelementptr inbounds [1000 x i8], [1000 x i8]* %254, i64 0, i64 %256
  %258 = load i8, i8* %257, align 1
  %259 = sext i8 %258 to i32
  %260 = call i32 (i8*, ...) @printf(i8* getelementptr inbounds ([3 x i8], [3 x i8]* @.str.1, i64 0, i64 0), i32 %259)
  br label %261

261:                                              ; preds = %251
  %262 = load i32, i32* %4, align 4
  %263 = add nsw i32 %262, 1
  store i32 %263, i32* %4, align 4
  br label %247

264:                                              ; preds = %247
  %265 = call i32 (i8*, ...) @printf(i8* getelementptr inbounds ([2 x i8], [2 x i8]* @.str.2, i64 0, i64 0))
  br label %266

266:                                              ; preds = %264
  %267 = load i32, i32* %3, align 4
  %268 = add nsw i32 %267, 1
  store i32 %268, i32* %3, align 4
  br label %25

269:                                              ; preds = %25
  ret i32 0
}

declare dso_local i32 @__isoc99_scanf(i8*, ...) #1

declare dso_local i32 @gets(...) #1

declare dso_local i32 @printf(i8*, ...) #1


!llvm.module.flags = !{!0}
!llvm.ident = !{!1}

!0 = !{i32 1, !"wchar_size", i32 4}
!1 = !{!"clang version 10.0.0-4ubuntu1 "}
